target datalayout = "e-m:e-p270:32:32-p271:32:32-p272:64:64-i64:64-i128:128-f80:128-n8:16:32:64-S128"
target triple = "x86_64-pc-linux-gnu"

%struct._lv_lru_rb_t = type { %struct._lv_cache_t, %struct._lv_rb_t, %struct.lv_ll_t, ptr }
%struct._lv_cache_t = type { ptr, i32, i32, i32, %struct._lv_cache_ops_t, i32, ptr }
%struct._lv_cache_ops_t = type { ptr, ptr, ptr }
%struct._lv_rb_t = type { ptr, ptr, i64 }
%struct.lv_ll_t = type { i32, ptr, ptr }
%struct._lv_rb_node_t = type { ptr, ptr, ptr, i32, ptr }

; Function Attrs: inlinehint nounwind uwtable
define internal ptr @get_lru_node(ptr noundef %0, ptr noundef %1) #3 {
  %3 = alloca ptr, align 8
  %4 = alloca ptr, align 8
  store ptr %0, ptr %3, align 8, !tbaa !3
  store ptr %1, ptr %4, align 8, !tbaa !3
  %5 = load ptr, ptr %4, align 8, !tbaa !3
  %6 = getelementptr inbounds nuw %struct._lv_rb_node_t, ptr %5, i32 0, i32 4
  %7 = load ptr, ptr %6, align 8, !tbaa !21
  %8 = load ptr, ptr %3, align 8, !tbaa !3
  %9 = getelementptr inbounds nuw %struct._lv_lru_rb_t, ptr %8, i32 0, i32 1
  %10 = getelementptr inbounds nuw %struct._lv_rb_t, ptr %9, i32 0, i32 2
  %11 = load i64, ptr %10, align 8, !tbaa !33
  %12 = getelementptr inbounds nuw i8, ptr %7, i64 %11
  %13 = getelementptr inbounds i8, ptr %12, i64 -8
  ret ptr %13
}

; Function Attrs: nounwind uwtable
define internal ptr @alloc_new_node(ptr noundef %0, ptr noundef %1, ptr noundef %2) #0 {
  %4 = alloca ptr, align 8
  %5 = alloca ptr, align 8
  %6 = alloca ptr, align 8
  %7 = alloca ptr, align 8
  %8 = alloca ptr, align 8
  %9 = alloca ptr, align 8
  %10 = alloca ptr, align 8
  %11 = alloca ptr, align 8
  store ptr %0, ptr %5, align 8, !tbaa !3
  store ptr %1, ptr %6, align 8, !tbaa !3
  store ptr %2, ptr %7, align 8, !tbaa !3
  br label %12

12:                                               ; preds = %3
  %13 = load ptr, ptr %5, align 8, !tbaa !3
  %14 = icmp ne ptr %13, null
  br i1 %14, label %19, label %15

15:                                               ; preds = %12
  br label %16

16:                                               ; preds = %15
  br label %17

17:                                               ; preds = %16
  br label %18

18:                                               ; preds = %17, %18
  br label %18

19:                                               ; preds = %12
  br label %20

20:                                               ; preds = %19
  br label %21

21:                                               ; preds = %20
  %22 = load ptr, ptr %6, align 8, !tbaa !3
  %23 = icmp ne ptr %22, null
  br i1 %23, label %28, label %24

24:                                               ; preds = %21
  br label %25

25:                                               ; preds = %24
  br label %26

26:                                               ; preds = %25
  br label %27

27:                                               ; preds = %26, %27
  br label %27

28:                                               ; preds = %21
  br label %29

29:                                               ; preds = %28
  %30 = load ptr, ptr %5, align 8, !tbaa !3
  %31 = icmp eq ptr %30, null
  br i1 %31, label %35, label %32

32:                                               ; preds = %29
  %33 = load ptr, ptr %6, align 8, !tbaa !3
  %34 = icmp eq ptr %33, null
  br i1 %34, label %35, label %36

35:                                               ; preds = %32, %29
  store ptr null, ptr %4, align 8
  br label %89

36:                                               ; preds = %32
  call void @llvm.lifetime.start.p0(i64 8, ptr %8) #4
  %37 = load ptr, ptr %5, align 8, !tbaa !3
  %38 = getelementptr inbounds nuw %struct._lv_lru_rb_t, ptr %37, i32 0, i32 1
  %39 = load ptr, ptr %6, align 8, !tbaa !3
  %40 = call ptr @lv_rb_insert(ptr noundef %38, ptr noundef %39)
  store ptr %40, ptr %8, align 8, !tbaa !3
  %41 = load ptr, ptr %8, align 8, !tbaa !3
  %42 = icmp eq ptr %41, null
  br i1 %42, label %43, label %44

43:                                               ; preds = %36
  br label %87

44:                                               ; preds = %36
  %45 = load ptr, ptr %8, align 8, !tbaa !3
  %46 = getelementptr inbounds nuw %struct._lv_rb_node_t, ptr %45, i32 0, i32 4
  %47 = load ptr, ptr %46, align 8, !tbaa !21
  store ptr %47, ptr %9, align 8, !tbaa !3
  %48 = load ptr, ptr %9, align 8, !tbaa !3
  %49 = load ptr, ptr %5, align 8, !tbaa !3
  %50 = getelementptr inbounds nuw %struct._lv_lru_rb_t, ptr %49, i32 0, i32 0
  %51 = getelementptr inbounds nuw %struct._lv_cache_t, ptr %50, i32 0, i32 1
  %52 = load i32, ptr %51, align 8, !tbaa !16
  %53 = call ptr @lv_cache_entry_get_entry(ptr noundef %48, i32 noundef %52)
  store ptr %53, ptr %10, align 8, !tbaa !3
  %54 = load ptr, ptr %9, align 8, !tbaa !3
  %55 = load ptr, ptr %6, align 8, !tbaa !3
  %56 = load ptr, ptr %5, align 8, !tbaa !3
  %57 = getelementptr inbounds nuw %struct._lv_lru_rb_t, ptr %56, i32 0, i32 0
  %58 = getelementptr inbounds nuw %struct._lv_cache_t, ptr %57, i32 0, i32 1
  %59 = load i32, ptr %58, align 8, !tbaa !16
  %60 = zext i32 %59 to i64
  %61 = call ptr @lv_memcpy(ptr noundef %54, ptr noundef %55, i64 noundef %60)
  %62 = load ptr, ptr %5, align 8, !tbaa !3
  %63 = getelementptr inbounds nuw %struct._lv_lru_rb_t, ptr %62, i32 0, i32 2
  %64 = call ptr @lv_ll_ins_head(ptr noundef %63)
  store ptr %64, ptr %11, align 8, !tbaa !3
  %65 = load ptr, ptr %11, align 8, !tbaa !3
  %66 = icmp eq ptr %65, null
  br i1 %66, label %67, label %68

67:                                               ; preds = %44
  br label %82

68:                                               ; preds = %44
  %69 = load ptr, ptr %11, align 8, !tbaa !3
  %70 = call ptr @lv_memcpy(ptr noundef %69, ptr noundef %8, i64 noundef 8)
  %71 = load ptr, ptr %5, align 8, !tbaa !3
  %72 = load ptr, ptr %8, align 8, !tbaa !3
  %73 = call ptr @get_lru_node(ptr noundef %71, ptr noundef %72)
  %74 = call ptr @lv_memcpy(ptr noundef %73, ptr noundef %11, i64 noundef 8)
  %75 = load ptr, ptr %10, align 8, !tbaa !3
  %76 = load ptr, ptr %5, align 8, !tbaa !3
  %77 = getelementptr inbounds nuw %struct._lv_lru_rb_t, ptr %76, i32 0, i32 0
  %78 = load ptr, ptr %5, align 8, !tbaa !3
  %79 = getelementptr inbounds nuw %struct._lv_lru_rb_t, ptr %78, i32 0, i32 0
  %80 = getelementptr inbounds nuw %struct._lv_cache_t, ptr %79, i32 0, i32 1
  %81 = load i32, ptr %80, align 8, !tbaa !16
  call void @lv_cache_entry_init(ptr noundef %75, ptr noundef %77, i32 noundef %81)
  br label %87

82:                                               ; preds = %67
  %83 = load ptr, ptr %5, align 8, !tbaa !3
  %84 = getelementptr inbounds nuw %struct._lv_lru_rb_t, ptr %83, i32 0, i32 1
  %85 = load ptr, ptr %8, align 8, !tbaa !3
  %86 = call zeroext i1 @lv_rb_drop_node(ptr noundef %84, ptr noundef %85)
  store ptr null, ptr %8, align 8, !tbaa !3
  br label %87

87:                                               ; preds = %82, %68, %43
  %88 = load ptr, ptr %8, align 8, !tbaa !3
  store ptr %88, ptr %4, align 8
  call void @llvm.lifetime.end.p0(i64 8, ptr %8) #4
  br label %89

89:                                               ; preds = %87, %35
  %90 = load ptr, ptr %4, align 8
  ret ptr %90
}

; Function Attrs: nounwind uwtable
define internal ptr @add_cb(ptr noundef %0, ptr noundef %1, ptr noundef %2) #0 {
  %4 = alloca ptr, align 8
  %5 = alloca ptr, align 8
  %6 = alloca ptr, align 8
  %7 = alloca ptr, align 8
  %8 = alloca ptr, align 8
  %9 = alloca i32, align 4
  %10 = alloca ptr, align 8
  %11 = alloca ptr, align 8
  store ptr %0, ptr %5, align 8, !tbaa !3
  store ptr %1, ptr %6, align 8, !tbaa !3
  store ptr %2, ptr %7, align 8, !tbaa !3
  call void @llvm.lifetime.start.p0(i64 8, ptr %8) #4
  %12 = load ptr, ptr %5, align 8, !tbaa !3
  store ptr %12, ptr %8, align 8, !tbaa !3
  br label %13

13:                                               ; preds = %3
  %14 = load ptr, ptr %8, align 8, !tbaa !3
  %15 = icmp ne ptr %14, null
  br i1 %15, label %22, label %16

16:                                               ; preds = %13
  br label %17

17:                                               ; preds = %16
  br label %18

18:                                               ; preds = %17
  br label %19

19:                                               ; preds = %18
  br label %20

20:                                               ; preds = %21, %19
  br label %21

21:                                               ; preds = %20
  br label %20

22:                                               ; preds = %13
  br label %23

23:                                               ; preds = %22
  br label %24

24:                                               ; preds = %23
  br label %25

25:                                               ; preds = %24
  %26 = load ptr, ptr %6, align 8, !tbaa !3
  %27 = icmp ne ptr %26, null
  br i1 %27, label %34, label %28

28:                                               ; preds = %25
  br label %29

29:                                               ; preds = %28
  br label %30

30:                                               ; preds = %29
  br label %31

31:                                               ; preds = %30
  br label %32

32:                                               ; preds = %33, %31
  br label %33

33:                                               ; preds = %32
  br label %32

34:                                               ; preds = %25
  br label %35

35:                                               ; preds = %34
  br label %36

36:                                               ; preds = %35
  %37 = load ptr, ptr %8, align 8, !tbaa !3
  %38 = icmp eq ptr %37, null
  br i1 %38, label %42, label %39

39:                                               ; preds = %36
  %40 = load ptr, ptr %6, align 8, !tbaa !3
  %41 = icmp eq ptr %40, null
  br i1 %41, label %42, label %43

42:                                               ; preds = %39, %36
  store ptr null, ptr %4, align 8
  store i32 1, ptr %9, align 4
  br label %70

43:                                               ; preds = %39
  call void @llvm.lifetime.start.p0(i64 8, ptr %10) #4
  %44 = load ptr, ptr %8, align 8, !tbaa !3
  %45 = load ptr, ptr %6, align 8, !tbaa !3
  %46 = load ptr, ptr %7, align 8, !tbaa !3
  %47 = call ptr @alloc_new_node(ptr noundef %44, ptr noundef %45, ptr noundef %46)
  store ptr %47, ptr %10, align 8, !tbaa !3
  %48 = load ptr, ptr %10, align 8, !tbaa !3
  %49 = icmp eq ptr %48, null
  br i1 %49, label %50, label %51

50:                                               ; preds = %43
  store ptr null, ptr %4, align 8
  store i32 1, ptr %9, align 4
  br label %69

51:                                               ; preds = %43
  call void @llvm.lifetime.start.p0(i64 8, ptr %11) #4
  %52 = load ptr, ptr %10, align 8, !tbaa !3
  %53 = getelementptr inbounds nuw %struct._lv_rb_node_t, ptr %52, i32 0, i32 4
  %54 = load ptr, ptr %53, align 8, !tbaa !21
  %55 = load ptr, ptr %5, align 8, !tbaa !3
  %56 = getelementptr inbounds nuw %struct._lv_cache_t, ptr %55, i32 0, i32 1
  %57 = load i32, ptr %56, align 8, !tbaa !23
  %58 = call ptr @lv_cache_entry_get_entry(ptr noundef %54, i32 noundef %57)
  store ptr %58, ptr %11, align 8, !tbaa !3
  %59 = load ptr, ptr %8, align 8, !tbaa !3
  %60 = getelementptr inbounds nuw %struct._lv_lru_rb_t, ptr %59, i32 0, i32 3
  %61 = load ptr, ptr %60, align 8, !tbaa !17
  %62 = load ptr, ptr %6, align 8, !tbaa !3
  %63 = call i32 %61(ptr noundef %62)
  %64 = load ptr, ptr %5, align 8, !tbaa !3
  %65 = getelementptr inbounds nuw %struct._lv_cache_t, ptr %64, i32 0, i32 3
  %66 = load i32, ptr %65, align 8, !tbaa !24
  %67 = add i32 %66, %63
  store i32 %67, ptr %65, align 8, !tbaa !24
  %68 = load ptr, ptr %11, align 8, !tbaa !3
  store ptr %68, ptr %4, align 8
  store i32 1, ptr %9, align 4
  call void @llvm.lifetime.end.p0(i64 8, ptr %11) #4
  br label %69

69:                                               ; preds = %51, %50
  call void @llvm.lifetime.end.p0(i64 8, ptr %10) #4
  br label %70

70:                                               ; preds = %69, %42
  call void @llvm.lifetime.end.p0(i64 8, ptr %8) #4
  %71 = load ptr, ptr %4, align 8
  ret ptr %71
}