; Function Attrs: nounwind uwtable
define internal ptr @add_cb(ptr noundef %0, ptr noundef %1, ptr nocapture readnone %2) #0 {
  %4 = alloca ptr, align 8
  %5 = alloca ptr, align 8
  %.not = icmp eq ptr %0, null
  br i1 %.not, label %.preheader, label %6

.preheader:                                       ; preds = %3, %.preheader
  br label %.preheader

6:                                                ; preds = %3
  %.not20 = icmp eq ptr %1, null
  br i1 %.not20, label %.preheader21, label %7

.preheader21:                                     ; preds = %6, %.preheader21
  br label %.preheader21

7:                                                ; preds = %6
  call void @llvm.lifetime.start.p0(i64 8, ptr nonnull %5)
  call void @llvm.lifetime.start.p0(i64 8, ptr nonnull %4) #5
  %8 = getelementptr inbounds nuw i8, ptr %0, i64 64
  %9 = tail call ptr @lv_rb_insert(ptr noundef nonnull %8, ptr noundef nonnull %1) #5
  store ptr %9, ptr %4, align 8, !tbaa !20
  %10 = icmp eq ptr %9, null
  br i1 %10, label %alloc_new_node.exit.thread, label %11

11:                                               ; preds = %7
  %12 = getelementptr inbounds nuw i8, ptr %9, i64 32
  %13 = load ptr, ptr %12, align 8, !tbaa !21
  %14 = getelementptr inbounds nuw i8, ptr %0, i64 8
  %15 = load i32, ptr %14, align 8, !tbaa !15
  %16 = tail call ptr @lv_cache_entry_get_entry(ptr noundef %13, i32 noundef %15) #5
  %17 = load i32, ptr %14, align 8, !tbaa !15
  %18 = zext i32 %17 to i64
  %19 = tail call ptr @lv_memcpy(ptr noundef %13, ptr noundef nonnull %1, i64 noundef %18) #5
  %20 = getelementptr inbounds nuw i8, ptr %0, i64 88
  %21 = tail call ptr @lv_ll_ins_head(ptr noundef nonnull %20) #5
  store ptr %21, ptr %5, align 8, !tbaa !20
  %22 = icmp eq ptr %21, null
  br i1 %22, label %23, label %alloc_new_node.exit

23:                                               ; preds = %11
  %24 = tail call zeroext i1 @lv_rb_drop_node(ptr noundef nonnull %8, ptr noundef nonnull %9) #5
  br label %alloc_new_node.exit.thread

alloc_new_node.exit.thread:                       ; preds = %7, %23
  call void @llvm.lifetime.end.p0(i64 8, ptr nonnull %4) #5
  call void @llvm.lifetime.end.p0(i64 8, ptr nonnull %5)
  br label %45

alloc_new_node.exit:                              ; preds = %11
  %25 = call ptr @lv_memcpy(ptr noundef nonnull %21, ptr noundef nonnull %4, i64 noundef 8) #5
  %26 = load ptr, ptr %4, align 8, !tbaa !20
  %27 = getelementptr i8, ptr %0, i64 80
  %.val.i = load i64, ptr %27, align 8, !tbaa !24
  %28 = getelementptr i8, ptr %26, i64 32
  %.val23.i = load ptr, ptr %28, align 8, !tbaa !21
  %29 = getelementptr inbounds nuw i8, ptr %.val23.i, i64 %.val.i
  %30 = getelementptr inbounds i8, ptr %29, i64 -8
  %31 = call ptr @lv_memcpy(ptr noundef nonnull %30, ptr noundef nonnull %5, i64 noundef 8) #5
  %32 = load i32, ptr %14, align 8, !tbaa !15
  call void @lv_cache_entry_init(ptr noundef %16, ptr noundef nonnull %0, i32 noundef %32) #5
  %.pre.i = load ptr, ptr %4, align 8, !tbaa !20
  call void @llvm.lifetime.end.p0(i64 8, ptr nonnull %4) #5
  call void @llvm.lifetime.end.p0(i64 8, ptr nonnull %5)
  %33 = icmp eq ptr %.pre.i, null
  br i1 %33, label %45, label %34

34:                                               ; preds = %alloc_new_node.exit
  %35 = getelementptr inbounds nuw i8, ptr %.pre.i, i64 32
  %36 = load ptr, ptr %35, align 8, !tbaa !21
  %37 = load i32, ptr %14, align 8, !tbaa !23
  %38 = call ptr @lv_cache_entry_get_entry(ptr noundef %36, i32 noundef %37) #5
  %39 = getelementptr inbounds nuw i8, ptr %0, i64 112
  %40 = load ptr, ptr %39, align 8, !tbaa !16
  %41 = call i32 %40(ptr noundef nonnull %1) #5
  %42 = getelementptr inbounds nuw i8, ptr %0, i64 16
  %43 = load i32, ptr %42, align 8, !tbaa !25
  %44 = add i32 %43, %41
  store i32 %44, ptr %42, align 8, !tbaa !25
  br label %45

45:                                               ; preds = %alloc_new_node.exit.thread, %34, %alloc_new_node.exit
  %.1 = phi ptr [ %38, %34 ], [ null, %alloc_new_node.exit ], [ null, %alloc_new_node.exit.thread ]
  ret ptr %.1
}